target datalayout = "e-m:e-p270:32:32-p271:32:32-p272:64:64-i64:64-i128:128-f80:128-n8:16:32:64-S128"
target triple = "x86_64-pc-linux-gnu"

; Function Attrs: nounwind uwtable
define internal i32 @get_cbrt_h2(i16 noundef signext %0, i32 noundef %1) #1 {
  %3 = alloca i16, align 2
  %4 = alloca i32, align 4
  store i16 %0, ptr %3, align 2, !tbaa !93
  store i32 %1, ptr %4, align 4, !tbaa !49
  %5 = load i16, ptr %3, align 2, !tbaa !93
  %6 = sext i16 %5 to i32
  %7 = icmp sge i32 %6, 0
  br i1 %7, label %8, label %11

8:                                                ; preds = %2
  %9 = load i16, ptr %3, align 2, !tbaa !93
  %10 = sext i16 %9 to i32
  br label %15

11:                                               ; preds = %2
  %12 = load i16, ptr %3, align 2, !tbaa !93
  %13 = sext i16 %12 to i32
  %14 = sub nsw i32 0, %13
  br label %15

15:                                               ; preds = %11, %8
  %16 = phi i32 [ %10, %8 ], [ %14, %11 ]
  %17 = sitofp i32 %16 to double
  %18 = call nsz double @cbrt(double noundef %17) #15
  %19 = load i32, ptr %4, align 4, !tbaa !49
  %20 = sitofp i32 %19 to double
  %21 = fmul nsz double %18, %20
  %22 = call nsz double @cbrt(double noundef 3.276700e+04) #15
  %23 = fdiv nsz double %21, %22
  %24 = fptosi double %23 to i32
  ret i32 %24
}