; Function Attrs: mustprogress nofree norecurse nosync nounwind willreturn memory(none) uwtable
define internal i32 @get_cbrt_h2(i16 noundef signext %0, i32 noundef %1) #9 {
  %3 = tail call i16 @llvm.abs.i16(i16 %0, i1 false)
  %4 = uitofp i16 %3 to double
  %5 = tail call nsz double @cbrt(double noundef %4) #18
  %6 = sitofp i32 %1 to double
  %7 = fmul nsz double %5, %6
  %8 = tail call nsz double @cbrt(double noundef 3.276700e+04) #18
  %9 = fdiv nsz double %7, %8
  %10 = fptosi double %9 to i32
  ret i32 %10
}